; Function Attrs: nounwind uwtable
define internal void @tts_buffer_heap_materialize(ptr noundef captures(none) %0) #1 {
  %2 = getelementptr inbounds nuw i8, ptr %0, i64 4
  %3 = load i16, ptr %2, align 4
  %4 = and i16 %3, 4
  %.not = icmp eq i16 %4, 0
  br i1 %.not, label %5, label %30

5:                                                ; preds = %1
  %6 = getelementptr inbounds nuw i8, ptr %0, i64 40
  %7 = load ptr, ptr %6, align 8
  %8 = load ptr, ptr @CurrentMemoryContext, align 8
  store ptr %7, ptr @CurrentMemoryContext, align 8
  %9 = getelementptr inbounds nuw i8, ptr %0, i64 72
  store i32 0, ptr %9, align 8
  %10 = getelementptr inbounds nuw i8, ptr %0, i64 6
  store i16 0, ptr %10, align 2
  %11 = getelementptr inbounds nuw i8, ptr %0, i64 64
  %12 = load ptr, ptr %11, align 8
  %.not17 = icmp eq ptr %12, null
  br i1 %.not17, label %13, label %21

13:                                               ; preds = %5
  %14 = getelementptr inbounds nuw i8, ptr %0, i64 16
  %15 = load ptr, ptr %14, align 8
  %16 = getelementptr inbounds nuw i8, ptr %0, i64 24
  %17 = load ptr, ptr %16, align 8
  %18 = getelementptr inbounds nuw i8, ptr %0, i64 32
  %19 = load ptr, ptr %18, align 8
  %20 = tail call ptr @heap_form_tuple(ptr noundef %15, ptr noundef %17, ptr noundef %19) #14
  store ptr %20, ptr %11, align 8
  br label %27

21:                                               ; preds = %5
  %22 = tail call ptr @heap_copytuple(ptr noundef nonnull %12) #14
  store ptr %22, ptr %11, align 8
  %23 = getelementptr inbounds nuw i8, ptr %0, i64 104
  %24 = load i32, ptr %23, align 8
  %.not18 = icmp eq i32 %24, 0
  br i1 %.not18, label %26, label %25, !prof !10

25:                                               ; preds = %21
  tail call void @ReleaseBuffer(i32 noundef %24) #14
  br label %26

26:                                               ; preds = %25, %21
  store i32 0, ptr %23, align 8
  br label %27

27:                                               ; preds = %26, %13
  %28 = load i16, ptr %2, align 4
  %29 = or i16 %28, 4
  store i16 %29, ptr %2, align 4
  store ptr %8, ptr @CurrentMemoryContext, align 8
  br label %30

30:                                               ; preds = %1, %27
  ret void
}